target datalayout = "e-m:e-p270:32:32-p271:32:32-p272:64:64-i64:64-i128:128-f80:128-n8:16:32:64-S128"
target triple = "x86_64-unknown-linux-gnu"

%struct.SCSISense = type { i8, i8, i8 }
%struct.SCSIDiskState = type { %struct.SCSIDevice, i32, i8, i8, i8, i16, i64, i64, i32, ptr, ptr, ptr, ptr, ptr, ptr, i8, i8, i16 }
%struct.SCSIDevice = type { %struct.DeviceState, ptr, ptr, i32, %struct.BlockConf, %struct.SCSISense, i8, [252 x i8], i32, %union.anon, i32, i32, i32, i32, i64, i64, i64, i32, i32, i32, i8, i8 }
%struct.DeviceState = type { %struct.Object, ptr, ptr, i8, i8, i64, ptr, i32, i8, ptr, %struct.NamedGPIOListHead, %struct.NamedClockListHead, %struct.BusStateHead, i32, i32, i32, %struct.ResettableState, ptr, %struct.MemReentrancyGuard }
%struct.Object = type { ptr, ptr, ptr, i32, ptr }
%struct.NamedGPIOListHead = type { ptr }
%struct.NamedClockListHead = type { ptr }
%struct.BusStateHead = type { ptr }
%struct.ResettableState = type { i32, i8, i8 }
%struct.MemReentrancyGuard = type { i8 }
%struct.BlockConf = type { ptr, i32, i32, i32, i32, i32, i32, i32, i32, i32, i32, i32, i32, i32, i32, i8, i32, i32, i32, i32 }
%union.anon = type { %struct.QTailQLink }
%struct.QTailQLink = type { ptr, ptr }
%struct.SCSIDiskReq = type { %struct.SCSIRequest, i64, i32, i32, i8, i8, %struct.iovec, %struct.QEMUIOVector, %struct.BlockAcctCookie }
%struct.SCSIRequest = type { ptr, ptr, ptr, i32, i32, i32, i16, i16, ptr, i64, %struct.SCSICommand, %struct.NotifierList, [252 x i8], i32, i8, i8, i8, i8, ptr, ptr, %union.anon.0 }
%struct.SCSICommand = type { [16 x i8], i32, i64, i64, i32 }
%struct.NotifierList = type { %struct.anon }
%struct.anon = type { ptr }
%union.anon.0 = type { %struct.QTailQLink }
%struct.iovec = type { ptr, i64 }
%struct.QEMUIOVector = type { ptr, i32, %union.anon.1 }
%union.anon.1 = type { %struct.anon.2 }
%struct.anon.2 = type { i32, %struct.iovec }
%struct.BlockAcctCookie = type { i64, i64, i32 }

@sense_code_INVALID_FIELD = external constant %struct.SCSISense, align 1

; Function Attrs: nounwind sspstrong uwtable
define internal i32 @scsi_read_disc_information(ptr noundef %s, ptr noundef %r, ptr noundef %outbuf) #0 {
entry:
  %retval = alloca i32, align 4
  %s.addr = alloca ptr, align 8
  %r.addr = alloca ptr, align 8
  %outbuf.addr = alloca ptr, align 8
  %type = alloca i8, align 1
  %sense_code_INVALID_FIELD.coerce = alloca i24, align 4
  store ptr %s, ptr %s.addr, align 8
  store ptr %r, ptr %r.addr, align 8
  store ptr %outbuf, ptr %outbuf.addr, align 8
  %0 = load ptr, ptr %r.addr, align 8
  %req = getelementptr inbounds %struct.SCSIDiskReq, ptr %0, i32 0, i32 0
  %cmd = getelementptr inbounds %struct.SCSIRequest, ptr %req, i32 0, i32 10
  %buf = getelementptr inbounds %struct.SCSICommand, ptr %cmd, i32 0, i32 0
  %arrayidx = getelementptr [16 x i8], ptr %buf, i64 0, i64 1
  %1 = load i8, ptr %arrayidx, align 1
  %conv = zext i8 %1 to i32
  %and = and i32 %conv, 7
  %conv1 = trunc i32 %and to i8
  store i8 %conv1, ptr %type, align 1
  %2 = load ptr, ptr %s.addr, align 8
  %qdev = getelementptr inbounds %struct.SCSIDiskState, ptr %2, i32 0, i32 0
  %type2 = getelementptr inbounds %struct.SCSIDevice, ptr %qdev, i32 0, i32 13
  %3 = load i32, ptr %type2, align 4
  %cmp = icmp ne i32 %3, 5
  br i1 %cmp, label %if.then, label %if.end

if.then:                                          ; preds = %entry
  store i32 -1, ptr %retval, align 4
  br label %return

if.end:                                           ; preds = %entry
  %4 = load i8, ptr %type, align 1
  %conv4 = zext i8 %4 to i32
  %cmp5 = icmp ne i32 %conv4, 0
  br i1 %cmp5, label %if.then7, label %if.end8

if.then7:                                         ; preds = %if.end
  %5 = load ptr, ptr %r.addr, align 8
  call void @llvm.memcpy.p0.p0.i64(ptr align 4 %sense_code_INVALID_FIELD.coerce, ptr align 1 @sense_code_INVALID_FIELD, i64 3, i1 false)
  %6 = load i24, ptr %sense_code_INVALID_FIELD.coerce, align 4
  call void @scsi_check_condition(ptr noundef %5, i24 %6)
  store i32 -1, ptr %retval, align 4
  br label %return

if.end8:                                          ; preds = %if.end
  %7 = load ptr, ptr %outbuf.addr, align 8
  call void @llvm.memset.p0.i64(ptr align 1 %7, i8 0, i64 34, i1 false)
  %8 = load ptr, ptr %outbuf.addr, align 8
  %arrayidx9 = getelementptr i8, ptr %8, i64 1
  store i8 32, ptr %arrayidx9, align 1
  %9 = load ptr, ptr %outbuf.addr, align 8
  %arrayidx10 = getelementptr i8, ptr %9, i64 2
  store i8 14, ptr %arrayidx10, align 1
  %10 = load ptr, ptr %outbuf.addr, align 8
  %arrayidx11 = getelementptr i8, ptr %10, i64 3
  store i8 1, ptr %arrayidx11, align 1
  %11 = load ptr, ptr %outbuf.addr, align 8
  %arrayidx12 = getelementptr i8, ptr %11, i64 4
  store i8 1, ptr %arrayidx12, align 1
  %12 = load ptr, ptr %outbuf.addr, align 8
  %arrayidx13 = getelementptr i8, ptr %12, i64 5
  store i8 1, ptr %arrayidx13, align 1
  %13 = load ptr, ptr %outbuf.addr, align 8
  %arrayidx14 = getelementptr i8, ptr %13, i64 6
  store i8 1, ptr %arrayidx14, align 1
  %14 = load ptr, ptr %outbuf.addr, align 8
  %arrayidx15 = getelementptr i8, ptr %14, i64 7
  store i8 32, ptr %arrayidx15, align 1
  %15 = load ptr, ptr %outbuf.addr, align 8
  %arrayidx16 = getelementptr i8, ptr %15, i64 8
  store i8 0, ptr %arrayidx16, align 1
  store i32 34, ptr %retval, align 4
  br label %return

return:                                           ; preds = %if.end8, %if.then7, %if.then
  %16 = load i32, ptr %retval, align 4
  ret i32 %16
}