; Function Attrs: nounwind sspstrong uwtable
define internal fastcc range(i32 -1, 35) i32 @scsi_read_disc_information(i32 %s.564.val, ptr noundef %r, ptr noundef writeonly captures(none) %outbuf) unnamed_addr #0 {
entry:
  %cmp.not = icmp eq i32 %s.564.val, 5
  br i1 %cmp.not, label %if.end, label %return

if.end:                                           ; preds = %entry
  %arrayidx = getelementptr i8, ptr %r, i64 57
  %0 = load i8, ptr %arrayidx, align 1
  %1 = and i8 %0, 7
  %cmp5.not = icmp eq i8 %1, 0
  br i1 %cmp5.not, label %if.end8, label %if.then7

if.then7:                                         ; preds = %if.end
  %sense_code_INVALID_FIELD.coerce.0.copyload = load i24, ptr @sense_code_INVALID_FIELD, align 1
  tail call fastcc void @scsi_check_condition(ptr noundef nonnull %r, i24 %sense_code_INVALID_FIELD.coerce.0.copyload)
  br label %return

if.end8:                                          ; preds = %if.end
  tail call void @llvm.memset.p0.i64(ptr noundef nonnull align 1 dereferenceable(34) %outbuf, i8 0, i64 34, i1 false)
  %arrayidx9 = getelementptr i8, ptr %outbuf, i64 1
  store i8 32, ptr %arrayidx9, align 1
  %arrayidx10 = getelementptr i8, ptr %outbuf, i64 2
  store i8 14, ptr %arrayidx10, align 1
  %arrayidx11 = getelementptr i8, ptr %outbuf, i64 3
  %arrayidx15 = getelementptr i8, ptr %outbuf, i64 7
  store i32 16843009, ptr %arrayidx11, align 1
  store i8 32, ptr %arrayidx15, align 1
  br label %return

return:                                           ; preds = %entry, %if.end8, %if.then7
  %retval.0 = phi i32 [ -1, %if.then7 ], [ 34, %if.end8 ], [ -1, %entry ]
  ret i32 %retval.0
}